target datalayout = "e-m:e-p270:32:32-p271:32:32-p272:64:64-i64:64-i128:128-f80:128-n8:16:32:64-S128"
target triple = "x86_64-pc-linux-gnu"

%"class.cv::Matx" = type { [3 x i8] }

; Function Attrs: inlinehint mustprogress nounwind uwtable
define linkonce_odr hidden noundef nonnull align 1 dereferenceable(1) ptr @_ZN2cv3VecIhLi3EEixEi(ptr noundef nonnull align 1 dereferenceable(3) %0, i32 noundef %1) #4 comdat align 2 {
  %3 = alloca ptr, align 8
  %4 = alloca i32, align 4
  store ptr %0, ptr %3, align 8, !tbaa !32
  store i32 %1, ptr %4, align 4, !tbaa !26
  %5 = load ptr, ptr %3, align 8
  %6 = getelementptr inbounds nuw %"class.cv::Matx", ptr %5, i32 0, i32 0
  %7 = load i32, ptr %4, align 4, !tbaa !26
  %8 = sext i32 %7 to i64
  %9 = getelementptr inbounds [3 x i8], ptr %6, i64 0, i64 %8
  ret ptr %9
}

; Function Attrs: mustprogress uwtable
define hidden void @_Z9add_colorRN2cv3VecIhLi3EEERKhS4_S4_(ptr noundef nonnull align 1 dereferenceable(3) %0, ptr noundef nonnull align 1 dereferenceable(1) %1, ptr noundef nonnull align 1 dereferenceable(1) %2, ptr noundef nonnull align 1 dereferenceable(1) %3) #6 {
  %5 = alloca ptr, align 8
  %6 = alloca ptr, align 8
  %7 = alloca ptr, align 8
  %8 = alloca ptr, align 8
  store ptr %0, ptr %5, align 8, !tbaa !32
  store ptr %1, ptr %6, align 8, !tbaa !43
  store ptr %2, ptr %7, align 8, !tbaa !43
  store ptr %3, ptr %8, align 8, !tbaa !43
  %9 = load ptr, ptr %5, align 8, !tbaa !32
  %10 = call noundef nonnull align 1 dereferenceable(1) ptr @_ZN2cv3VecIhLi3EEixEi(ptr noundef nonnull align 1 dereferenceable(3) %9, i32 noundef 0)
  %11 = load i8, ptr %10, align 1, !tbaa !34
  %12 = zext i8 %11 to i32
  %13 = load ptr, ptr %6, align 8, !tbaa !43
  %14 = load i8, ptr %13, align 1, !tbaa !34
  %15 = zext i8 %14 to i32
  %16 = add nsw i32 %12, %15
  %17 = icmp slt i32 %16, 255
  br i1 %17, label %18, label %38

18:                                               ; preds = %4
  %19 = load ptr, ptr %5, align 8, !tbaa !32
  %20 = call noundef nonnull align 1 dereferenceable(1) ptr @_ZN2cv3VecIhLi3EEixEi(ptr noundef nonnull align 1 dereferenceable(3) %19, i32 noundef 0)
  %21 = load i8, ptr %20, align 1, !tbaa !34
  %22 = zext i8 %21 to i32
  %23 = load ptr, ptr %6, align 8, !tbaa !43
  %24 = load i8, ptr %23, align 1, !tbaa !34
  %25 = zext i8 %24 to i32
  %26 = add nsw i32 %22, %25
  %27 = icmp sge i32 %26, 0
  br i1 %27, label %28, label %38

28:                                               ; preds = %18
  %29 = load ptr, ptr %6, align 8, !tbaa !43
  %30 = load i8, ptr %29, align 1, !tbaa !34
  %31 = zext i8 %30 to i32
  %32 = load ptr, ptr %5, align 8, !tbaa !32
  %33 = call noundef nonnull align 1 dereferenceable(1) ptr @_ZN2cv3VecIhLi3EEixEi(ptr noundef nonnull align 1 dereferenceable(3) %32, i32 noundef 0)
  %34 = load i8, ptr %33, align 1, !tbaa !34
  %35 = zext i8 %34 to i32
  %36 = add nsw i32 %35, %31
  %37 = trunc i32 %36 to i8
  store i8 %37, ptr %33, align 1, !tbaa !34
  br label %38

38:                                               ; preds = %28, %18, %4
  %39 = load ptr, ptr %5, align 8, !tbaa !32
  %40 = call noundef nonnull align 1 dereferenceable(1) ptr @_ZN2cv3VecIhLi3EEixEi(ptr noundef nonnull align 1 dereferenceable(3) %39, i32 noundef 1)
  %41 = load i8, ptr %40, align 1, !tbaa !34
  %42 = zext i8 %41 to i32
  %43 = load ptr, ptr %7, align 8, !tbaa !43
  %44 = load i8, ptr %43, align 1, !tbaa !34
  %45 = zext i8 %44 to i32
  %46 = add nsw i32 %42, %45
  %47 = icmp slt i32 %46, 255
  br i1 %47, label %48, label %68

48:                                               ; preds = %38
  %49 = load ptr, ptr %5, align 8, !tbaa !32
  %50 = call noundef nonnull align 1 dereferenceable(1) ptr @_ZN2cv3VecIhLi3EEixEi(ptr noundef nonnull align 1 dereferenceable(3) %49, i32 noundef 1)
  %51 = load i8, ptr %50, align 1, !tbaa !34
  %52 = zext i8 %51 to i32
  %53 = load ptr, ptr %7, align 8, !tbaa !43
  %54 = load i8, ptr %53, align 1, !tbaa !34
  %55 = zext i8 %54 to i32
  %56 = add nsw i32 %52, %55
  %57 = icmp sge i32 %56, 0
  br i1 %57, label %58, label %68

58:                                               ; preds = %48
  %59 = load ptr, ptr %7, align 8, !tbaa !43
  %60 = load i8, ptr %59, align 1, !tbaa !34
  %61 = zext i8 %60 to i32
  %62 = load ptr, ptr %5, align 8, !tbaa !32
  %63 = call noundef nonnull align 1 dereferenceable(1) ptr @_ZN2cv3VecIhLi3EEixEi(ptr noundef nonnull align 1 dereferenceable(3) %62, i32 noundef 1)
  %64 = load i8, ptr %63, align 1, !tbaa !34
  %65 = zext i8 %64 to i32
  %66 = add nsw i32 %65, %61
  %67 = trunc i32 %66 to i8
  store i8 %67, ptr %63, align 1, !tbaa !34
  br label %68

68:                                               ; preds = %58, %48, %38
  %69 = load ptr, ptr %5, align 8, !tbaa !32
  %70 = call noundef nonnull align 1 dereferenceable(1) ptr @_ZN2cv3VecIhLi3EEixEi(ptr noundef nonnull align 1 dereferenceable(3) %69, i32 noundef 2)
  %71 = load i8, ptr %70, align 1, !tbaa !34
  %72 = zext i8 %71 to i32
  %73 = load ptr, ptr %8, align 8, !tbaa !43
  %74 = load i8, ptr %73, align 1, !tbaa !34
  %75 = zext i8 %74 to i32
  %76 = add nsw i32 %72, %75
  %77 = icmp slt i32 %76, 255
  br i1 %77, label %78, label %98

78:                                               ; preds = %68
  %79 = load ptr, ptr %5, align 8, !tbaa !32
  %80 = call noundef nonnull align 1 dereferenceable(1) ptr @_ZN2cv3VecIhLi3EEixEi(ptr noundef nonnull align 1 dereferenceable(3) %79, i32 noundef 2)
  %81 = load i8, ptr %80, align 1, !tbaa !34
  %82 = zext i8 %81 to i32
  %83 = load ptr, ptr %8, align 8, !tbaa !43
  %84 = load i8, ptr %83, align 1, !tbaa !34
  %85 = zext i8 %84 to i32
  %86 = add nsw i32 %82, %85
  %87 = icmp sge i32 %86, 0
  br i1 %87, label %88, label %98

88:                                               ; preds = %78
  %89 = load ptr, ptr %8, align 8, !tbaa !43
  %90 = load i8, ptr %89, align 1, !tbaa !34
  %91 = zext i8 %90 to i32
  %92 = load ptr, ptr %5, align 8, !tbaa !32
  %93 = call noundef nonnull align 1 dereferenceable(1) ptr @_ZN2cv3VecIhLi3EEixEi(ptr noundef nonnull align 1 dereferenceable(3) %92, i32 noundef 2)
  %94 = load i8, ptr %93, align 1, !tbaa !34
  %95 = zext i8 %94 to i32
  %96 = add nsw i32 %95, %91
  %97 = trunc i32 %96 to i8
  store i8 %97, ptr %93, align 1, !tbaa !34
  br label %98

98:                                               ; preds = %88, %78, %68
  ret void
}