; Function Attrs: mustprogress nofree norecurse nosync nounwind willreturn memory(argmem: readwrite) uwtable
define hidden void @_Z9add_colorRN2cv3VecIhLi3EEERKhS4_S4_(ptr noundef nonnull align 1 captures(none) dereferenceable(3) %0, ptr noundef nonnull readonly align 1 captures(none) dereferenceable(1) %1, ptr noundef nonnull readonly align 1 captures(none) dereferenceable(1) %2, ptr noundef nonnull readonly align 1 captures(none) dereferenceable(1) %3) local_unnamed_addr #9 {
  %5 = load i8, ptr %0, align 1, !tbaa !25
  %6 = zext i8 %5 to i32
  %7 = load i8, ptr %1, align 1, !tbaa !25
  %8 = zext i8 %7 to i32
  %9 = add nuw nsw i32 %8, %6
  %10 = icmp samesign ult i32 %9, 255
  br i1 %10, label %11, label %13

11:                                               ; preds = %4
  %12 = add i8 %7, %5
  store i8 %12, ptr %0, align 1, !tbaa !25
  br label %13

13:                                               ; preds = %11, %4
  %14 = getelementptr inbounds nuw i8, ptr %0, i64 1
  %15 = load i8, ptr %14, align 1, !tbaa !25
  %16 = zext i8 %15 to i32
  %17 = load i8, ptr %2, align 1, !tbaa !25
  %18 = zext i8 %17 to i32
  %19 = add nuw nsw i32 %18, %16
  %20 = icmp samesign ult i32 %19, 255
  br i1 %20, label %21, label %23

21:                                               ; preds = %13
  %22 = add i8 %17, %15
  store i8 %22, ptr %14, align 1, !tbaa !25
  br label %23

23:                                               ; preds = %21, %13
  %24 = getelementptr inbounds nuw i8, ptr %0, i64 2
  %25 = load i8, ptr %24, align 1, !tbaa !25
  %26 = zext i8 %25 to i32
  %27 = load i8, ptr %3, align 1, !tbaa !25
  %28 = zext i8 %27 to i32
  %29 = add nuw nsw i32 %28, %26
  %30 = icmp samesign ult i32 %29, 255
  br i1 %30, label %31, label %33

31:                                               ; preds = %23
  %32 = add i8 %27, %25
  store i8 %32, ptr %24, align 1, !tbaa !25
  br label %33

33:                                               ; preds = %31, %23
  ret void
}